target datalayout = "e-m:e-p270:32:32-p271:32:32-p272:64:64-i64:64-i128:128-f80:128-n8:16:32:64-S128"
target triple = "x86_64-pc-linux-gnu"

%struct.anon = type { i64, ptr, double, double }

@.str.37 = private unnamed_addr constant [19 x i8] c"N_VGetArrayPointer\00", align 1
@stderr = external global ptr, align 8
@.str.38 = private unnamed_addr constant [40 x i8] c"adapt_mesh error: illegal mesh created\0A\00", align 1
@.str.39 = private unnamed_addr constant [55 x i8] c"\0ASUNDIALS_ERROR: %s() failed - returned NULL pointer\0A\0A\00", align 1
@.str.40 = private unnamed_addr constant [46 x i8] c"\0ASUNDIALS_ERROR: %s() failed with flag = %d\0A\0A\00", align 1
@.str.41 = private unnamed_addr constant [53 x i8] c"\0AMEMORY_ERROR: %s() failed - returned NULL pointer\0A\0A\00", align 1

; Function Attrs: nounwind uwtable
define internal i32 @check_flag(ptr noundef %0, ptr noundef %1, i32 noundef %2) #0 {
  %4 = alloca i32, align 4
  %5 = alloca ptr, align 8
  %6 = alloca ptr, align 8
  %7 = alloca i32, align 4
  %8 = alloca ptr, align 8
  %9 = alloca i32, align 4
  store ptr %0, ptr %5, align 8, !tbaa !8
  store ptr %1, ptr %6, align 8, !tbaa !29
  store i32 %2, ptr %7, align 4, !tbaa !12
  call void @llvm.lifetime.start.p0(i64 8, ptr %8) #7
  %10 = load i32, ptr %7, align 4, !tbaa !12
  %11 = icmp eq i32 %10, 0
  br i1 %11, label %12, label %19

12:                                               ; preds = %3
  %13 = load ptr, ptr %5, align 8, !tbaa !8
  %14 = icmp eq ptr %13, null
  br i1 %14, label %15, label %19

15:                                               ; preds = %12
  %16 = load ptr, ptr @stderr, align 8, !tbaa !27
  %17 = load ptr, ptr %6, align 8, !tbaa !29
  %18 = call i32 (ptr, ptr, ...) @fprintf(ptr noundef %16, ptr noundef @.str.39, ptr noundef %17) #7
  store i32 1, ptr %4, align 4
  store i32 1, ptr %9, align 4
  br label %47

19:                                               ; preds = %12, %3
  %20 = load i32, ptr %7, align 4, !tbaa !12
  %21 = icmp eq i32 %20, 1
  br i1 %21, label %22, label %34

22:                                               ; preds = %19
  %23 = load ptr, ptr %5, align 8, !tbaa !8
  store ptr %23, ptr %8, align 8, !tbaa !31
  %24 = load ptr, ptr %8, align 8, !tbaa !31
  %25 = load i32, ptr %24, align 4, !tbaa !12
  %26 = icmp slt i32 %25, 0
  br i1 %26, label %27, label %33

27:                                               ; preds = %22
  %28 = load ptr, ptr @stderr, align 8, !tbaa !27
  %29 = load ptr, ptr %6, align 8, !tbaa !29
  %30 = load ptr, ptr %8, align 8, !tbaa !31
  %31 = load i32, ptr %30, align 4, !tbaa !12
  %32 = call i32 (ptr, ptr, ...) @fprintf(ptr noundef %28, ptr noundef @.str.40, ptr noundef %29, i32 noundef %31) #7
  store i32 1, ptr %4, align 4
  store i32 1, ptr %9, align 4
  br label %47

33:                                               ; preds = %22
  br label %45

34:                                               ; preds = %19
  %35 = load i32, ptr %7, align 4, !tbaa !12
  %36 = icmp eq i32 %35, 2
  br i1 %36, label %37, label %44

37:                                               ; preds = %34
  %38 = load ptr, ptr %5, align 8, !tbaa !8
  %39 = icmp eq ptr %38, null
  br i1 %39, label %40, label %44

40:                                               ; preds = %37
  %41 = load ptr, ptr @stderr, align 8, !tbaa !27
  %42 = load ptr, ptr %6, align 8, !tbaa !29
  %43 = call i32 (ptr, ptr, ...) @fprintf(ptr noundef %41, ptr noundef @.str.41, ptr noundef %42) #7
  store i32 1, ptr %4, align 4
  store i32 1, ptr %9, align 4
  br label %47

44:                                               ; preds = %37, %34
  br label %45

45:                                               ; preds = %44, %33
  br label %46

46:                                               ; preds = %45
  store i32 0, ptr %4, align 4
  store i32 1, ptr %9, align 4
  br label %47

47:                                               ; preds = %46, %40, %27, %15
  call void @llvm.lifetime.end.p0(i64 8, ptr %8) #7
  %48 = load i32, ptr %4, align 4
  ret i32 %48
}

; Function Attrs: nounwind uwtable
define dso_local ptr @adapt_mesh(ptr noundef %0, ptr noundef %1, ptr noundef %2) #0 {
  %4 = alloca ptr, align 8
  %5 = alloca ptr, align 8
  %6 = alloca ptr, align 8
  %7 = alloca ptr, align 8
  %8 = alloca i64, align 8
  %9 = alloca i64, align 8
  %10 = alloca ptr, align 8
  %11 = alloca double, align 8
  %12 = alloca ptr, align 8
  %13 = alloca ptr, align 8
  %14 = alloca ptr, align 8
  %15 = alloca i64, align 8
  %16 = alloca i64, align 8
  %17 = alloca i32, align 4
  store ptr %0, ptr %5, align 8, !tbaa !14
  store ptr %1, ptr %6, align 8, !tbaa !33
  store ptr %2, ptr %7, align 8, !tbaa !8
  call void @llvm.lifetime.start.p0(i64 8, ptr %8) #7
  call void @llvm.lifetime.start.p0(i64 8, ptr %9) #7
  call void @llvm.lifetime.start.p0(i64 8, ptr %10) #7
  store ptr null, ptr %10, align 8, !tbaa !31
  call void @llvm.lifetime.start.p0(i64 8, ptr %11) #7
  call void @llvm.lifetime.start.p0(i64 8, ptr %12) #7
  store ptr null, ptr %12, align 8, !tbaa !18
  call void @llvm.lifetime.start.p0(i64 8, ptr %13) #7
  store ptr null, ptr %13, align 8, !tbaa !18
  call void @llvm.lifetime.start.p0(i64 8, ptr %14) #7
  store ptr null, ptr %14, align 8, !tbaa !18
  call void @llvm.lifetime.start.p0(i64 8, ptr %15) #7
  call void @llvm.lifetime.start.p0(i64 8, ptr %16) #7
  %18 = load ptr, ptr %7, align 8, !tbaa !8
  %19 = getelementptr inbounds nuw %struct.anon, ptr %18, i32 0, i32 1
  %20 = load ptr, ptr %19, align 8, !tbaa !24
  store ptr %20, ptr %12, align 8, !tbaa !18
  %21 = load ptr, ptr %5, align 8, !tbaa !14
  %22 = call ptr @N_VGetArrayPointer(ptr noundef %21)
  store ptr %22, ptr %13, align 8, !tbaa !18
  %23 = load ptr, ptr %13, align 8, !tbaa !18
  %24 = call i32 @check_flag(ptr noundef %23, ptr noundef @.str.37, i32 noundef 0)
  %25 = icmp ne i32 %24, 0
  br i1 %25, label %26, label %27

26:                                               ; preds = %3
  store ptr null, ptr %4, align 8
  store i32 1, ptr %17, align 4
  br label %209

27:                                               ; preds = %3
  %28 = load ptr, ptr %7, align 8, !tbaa !8
  %29 = getelementptr inbounds nuw %struct.anon, ptr %28, i32 0, i32 0
  %30 = load i64, ptr %29, align 8, !tbaa !20
  %31 = sub nsw i64 %30, 1
  %32 = call noalias ptr @calloc(i64 noundef %31, i64 noundef 4) #9
  store ptr %32, ptr %10, align 8, !tbaa !31
  store i64 1, ptr %8, align 8, !tbaa !10
  br label %33

33:                                               ; preds = %72, %27
  %34 = load i64, ptr %8, align 8, !tbaa !10
  %35 = load ptr, ptr %7, align 8, !tbaa !8
  %36 = getelementptr inbounds nuw %struct.anon, ptr %35, i32 0, i32 0
  %37 = load i64, ptr %36, align 8, !tbaa !20
  %38 = sub nsw i64 %37, 1
  %39 = icmp slt i64 %34, %38
  br i1 %39, label %40, label %75

40:                                               ; preds = %33
  %41 = load ptr, ptr %13, align 8, !tbaa !18
  %42 = load i64, ptr %8, align 8, !tbaa !10
  %43 = sub nsw i64 %42, 1
  %44 = getelementptr inbounds double, ptr %41, i64 %43
  %45 = load double, ptr %44, align 8, !tbaa !4
  %46 = load ptr, ptr %13, align 8, !tbaa !18
  %47 = load i64, ptr %8, align 8, !tbaa !10
  %48 = getelementptr inbounds double, ptr %46, i64 %47
  %49 = load double, ptr %48, align 8, !tbaa !4
  %50 = call double @llvm.fmuladd.f64(double -2.000000e+00, double %49, double %45)
  %51 = load ptr, ptr %13, align 8, !tbaa !18
  %52 = load i64, ptr %8, align 8, !tbaa !10
  %53 = add nsw i64 %52, 1
  %54 = getelementptr inbounds double, ptr %51, i64 %53
  %55 = load double, ptr %54, align 8, !tbaa !4
  %56 = fadd double %50, %55
  store double %56, ptr %11, align 8, !tbaa !4
  %57 = load double, ptr %11, align 8, !tbaa !4
  %58 = call double @llvm.fabs.f64(double %57)
  %59 = load ptr, ptr %7, align 8, !tbaa !8
  %60 = getelementptr inbounds nuw %struct.anon, ptr %59, i32 0, i32 3
  %61 = load double, ptr %60, align 8, !tbaa !23
  %62 = fcmp ogt double %58, %61
  br i1 %62, label %63, label %71

63:                                               ; preds = %40
  %64 = load ptr, ptr %10, align 8, !tbaa !31
  %65 = load i64, ptr %8, align 8, !tbaa !10
  %66 = sub nsw i64 %65, 1
  %67 = getelementptr inbounds i32, ptr %64, i64 %66
  store i32 1, ptr %67, align 4, !tbaa !12
  %68 = load ptr, ptr %10, align 8, !tbaa !31
  %69 = load i64, ptr %8, align 8, !tbaa !10
  %70 = getelementptr inbounds i32, ptr %68, i64 %69
  store i32 1, ptr %70, align 4, !tbaa !12
  br label %71

71:                                               ; preds = %63, %40
  br label %72

72:                                               ; preds = %71
  %73 = load i64, ptr %8, align 8, !tbaa !10
  %74 = add nsw i64 %73, 1
  store i64 %74, ptr %8, align 8, !tbaa !10
  br label %33

75:                                               ; preds = %33
  store i64 0, ptr %15, align 8, !tbaa !10
  store i64 0, ptr %8, align 8, !tbaa !10
  br label %76

76:                                               ; preds = %93, %75
  %77 = load i64, ptr %8, align 8, !tbaa !10
  %78 = load ptr, ptr %7, align 8, !tbaa !8
  %79 = getelementptr inbounds nuw %struct.anon, ptr %78, i32 0, i32 0
  %80 = load i64, ptr %79, align 8, !tbaa !20
  %81 = sub nsw i64 %80, 1
  %82 = icmp slt i64 %77, %81
  br i1 %82, label %83, label %96

83:                                               ; preds = %76
  %84 = load ptr, ptr %10, align 8, !tbaa !31
  %85 = load i64, ptr %8, align 8, !tbaa !10
  %86 = getelementptr inbounds i32, ptr %84, i64 %85
  %87 = load i32, ptr %86, align 4, !tbaa !12
  %88 = icmp eq i32 %87, 1
  br i1 %88, label %89, label %92

89:                                               ; preds = %83
  %90 = load i64, ptr %15, align 8, !tbaa !10
  %91 = add nsw i64 %90, 1
  store i64 %91, ptr %15, align 8, !tbaa !10
  br label %92

92:                                               ; preds = %89, %83
  br label %93

93:                                               ; preds = %92
  %94 = load i64, ptr %8, align 8, !tbaa !10
  %95 = add nsw i64 %94, 1
  store i64 %95, ptr %8, align 8, !tbaa !10
  br label %76

96:                                               ; preds = %76
  %97 = load ptr, ptr %7, align 8, !tbaa !8
  %98 = getelementptr inbounds nuw %struct.anon, ptr %97, i32 0, i32 0
  %99 = load i64, ptr %98, align 8, !tbaa !20
  %100 = load i64, ptr %15, align 8, !tbaa !10
  %101 = add nsw i64 %99, %100
  store i64 %101, ptr %16, align 8, !tbaa !10
  %102 = load i64, ptr %16, align 8, !tbaa !10
  %103 = load ptr, ptr %6, align 8, !tbaa !33
  store i64 %102, ptr %103, align 8, !tbaa !10
  %104 = load i64, ptr %16, align 8, !tbaa !10
  %105 = mul i64 %104, 8
  %106 = call noalias ptr @malloc(i64 noundef %105) #8
  store ptr %106, ptr %14, align 8, !tbaa !18
  %107 = load ptr, ptr %12, align 8, !tbaa !18
  %108 = getelementptr inbounds double, ptr %107, i64 0
  %109 = load double, ptr %108, align 8, !tbaa !4
  %110 = load ptr, ptr %14, align 8, !tbaa !18
  %111 = getelementptr inbounds double, ptr %110, i64 0
  store double %109, ptr %111, align 8, !tbaa !4
  %112 = load ptr, ptr %12, align 8, !tbaa !18
  %113 = load ptr, ptr %7, align 8, !tbaa !8
  %114 = getelementptr inbounds nuw %struct.anon, ptr %113, i32 0, i32 0
  %115 = load i64, ptr %114, align 8, !tbaa !20
  %116 = sub nsw i64 %115, 1
  %117 = getelementptr inbounds double, ptr %112, i64 %116
  %118 = load double, ptr %117, align 8, !tbaa !4
  %119 = load ptr, ptr %14, align 8, !tbaa !18
  %120 = load i64, ptr %16, align 8, !tbaa !10
  %121 = sub nsw i64 %120, 1
  %122 = getelementptr inbounds double, ptr %119, i64 %121
  store double %118, ptr %122, align 8, !tbaa !4
  store i64 1, ptr %9, align 8, !tbaa !10
  store i64 0, ptr %8, align 8, !tbaa !10
  br label %123

123:                                              ; preds = %178, %96
  %124 = load i64, ptr %8, align 8, !tbaa !10
  %125 = load ptr, ptr %7, align 8, !tbaa !8
  %126 = getelementptr inbounds nuw %struct.anon, ptr %125, i32 0, i32 0
  %127 = load i64, ptr %126, align 8, !tbaa !20
  %128 = sub nsw i64 %127, 1
  %129 = icmp slt i64 %124, %128
  br i1 %129, label %130, label %181

130:                                              ; preds = %123
  %131 = load ptr, ptr %10, align 8, !tbaa !31
  %132 = load i64, ptr %8, align 8, !tbaa !10
  %133 = getelementptr inbounds i32, ptr %131, i64 %132
  %134 = load i32, ptr %133, align 4, !tbaa !12
  %135 = icmp eq i32 %134, 0
  br i1 %135, label %136, label %146

136:                                              ; preds = %130
  %137 = load ptr, ptr %12, align 8, !tbaa !18
  %138 = load i64, ptr %8, align 8, !tbaa !10
  %139 = add nsw i64 %138, 1
  %140 = getelementptr inbounds double, ptr %137, i64 %139
  %141 = load double, ptr %140, align 8, !tbaa !4
  %142 = load ptr, ptr %14, align 8, !tbaa !18
  %143 = load i64, ptr %9, align 8, !tbaa !10
  %144 = add nsw i64 %143, 1
  store i64 %144, ptr %9, align 8, !tbaa !10
  %145 = getelementptr inbounds double, ptr %142, i64 %143
  store double %141, ptr %145, align 8, !tbaa !4
  br label %178

146:                                              ; preds = %130
  %147 = load ptr, ptr %10, align 8, !tbaa !31
  %148 = load i64, ptr %8, align 8, !tbaa !10
  %149 = getelementptr inbounds i32, ptr %147, i64 %148
  %150 = load i32, ptr %149, align 4, !tbaa !12
  %151 = icmp eq i32 %150, 1
  br i1 %151, label %152, label %177

152:                                              ; preds = %146
  %153 = load ptr, ptr %12, align 8, !tbaa !18
  %154 = load i64, ptr %8, align 8, !tbaa !10
  %155 = getelementptr inbounds double, ptr %153, i64 %154
  %156 = load double, ptr %155, align 8, !tbaa !4
  %157 = load ptr, ptr %12, align 8, !tbaa !18
  %158 = load i64, ptr %8, align 8, !tbaa !10
  %159 = add nsw i64 %158, 1
  %160 = getelementptr inbounds double, ptr %157, i64 %159
  %161 = load double, ptr %160, align 8, !tbaa !4
  %162 = fadd double %156, %161
  %163 = fmul double 5.000000e-01, %162
  %164 = load ptr, ptr %14, align 8, !tbaa !18
  %165 = load i64, ptr %9, align 8, !tbaa !10
  %166 = add nsw i64 %165, 1
  store i64 %166, ptr %9, align 8, !tbaa !10
  %167 = getelementptr inbounds double, ptr %164, i64 %165
  store double %163, ptr %167, align 8, !tbaa !4
  %168 = load ptr, ptr %12, align 8, !tbaa !18
  %169 = load i64, ptr %8, align 8, !tbaa !10
  %170 = add nsw i64 %169, 1
  %171 = getelementptr inbounds double, ptr %168, i64 %170
  %172 = load double, ptr %171, align 8, !tbaa !4
  %173 = load ptr, ptr %14, align 8, !tbaa !18
  %174 = load i64, ptr %9, align 8, !tbaa !10
  %175 = add nsw i64 %174, 1
  store i64 %175, ptr %9, align 8, !tbaa !10
  %176 = getelementptr inbounds double, ptr %173, i64 %174
  store double %172, ptr %176, align 8, !tbaa !4
  br label %178

177:                                              ; preds = %146
  br label %178

178:                                              ; preds = %177, %152, %136
  %179 = load i64, ptr %8, align 8, !tbaa !10
  %180 = add nsw i64 %179, 1
  store i64 %180, ptr %8, align 8, !tbaa !10
  br label %123

181:                                              ; preds = %123
  store i64 0, ptr %8, align 8, !tbaa !10
  br label %182

182:                                              ; preds = %203, %181
  %183 = load i64, ptr %8, align 8, !tbaa !10
  %184 = load i64, ptr %16, align 8, !tbaa !10
  %185 = sub nsw i64 %184, 1
  %186 = icmp slt i64 %183, %185
  br i1 %186, label %187, label %206

187:                                              ; preds = %182
  %188 = load ptr, ptr %14, align 8, !tbaa !18
  %189 = load i64, ptr %8, align 8, !tbaa !10
  %190 = add nsw i64 %189, 1
  %191 = getelementptr inbounds double, ptr %188, i64 %190
  %192 = load double, ptr %191, align 8, !tbaa !4
  %193 = load ptr, ptr %14, align 8, !tbaa !18
  %194 = load i64, ptr %8, align 8, !tbaa !10
  %195 = getelementptr inbounds double, ptr %193, i64 %194
  %196 = load double, ptr %195, align 8, !tbaa !4
  %197 = fcmp ole double %192, %196
  br i1 %197, label %198, label %202

198:                                              ; preds = %187
  %199 = load ptr, ptr @stderr, align 8, !tbaa !27
  %200 = call i32 (ptr, ptr, ...) @fprintf(ptr noundef %199, ptr noundef @.str.38) #7
  %201 = load ptr, ptr %14, align 8, !tbaa !18
  call void @free(ptr noundef %201) #7
  store ptr null, ptr %4, align 8
  store i32 1, ptr %17, align 4
  br label %209

202:                                              ; preds = %187
  br label %203

203:                                              ; preds = %202
  %204 = load i64, ptr %8, align 8, !tbaa !10
  %205 = add nsw i64 %204, 1
  store i64 %205, ptr %8, align 8, !tbaa !10
  br label %182

206:                                              ; preds = %182
  %207 = load ptr, ptr %10, align 8, !tbaa !31
  call void @free(ptr noundef %207) #7
  %208 = load ptr, ptr %14, align 8, !tbaa !18
  store ptr %208, ptr %4, align 8
  store i32 1, ptr %17, align 4
  br label %209

209:                                              ; preds = %206, %198, %26
  call void @llvm.lifetime.end.p0(i64 8, ptr %16) #7
  call void @llvm.lifetime.end.p0(i64 8, ptr %15) #7
  call void @llvm.lifetime.end.p0(i64 8, ptr %14) #7
  call void @llvm.lifetime.end.p0(i64 8, ptr %13) #7
  call void @llvm.lifetime.end.p0(i64 8, ptr %12) #7
  call void @llvm.lifetime.end.p0(i64 8, ptr %11) #7
  call void @llvm.lifetime.end.p0(i64 8, ptr %10) #7
  call void @llvm.lifetime.end.p0(i64 8, ptr %9) #7
  call void @llvm.lifetime.end.p0(i64 8, ptr %8) #7
  %210 = load ptr, ptr %4, align 8
  ret ptr %210
}