; Function Attrs: nounwind uwtable
define dso_local noalias noundef ptr @adapt_mesh(ptr noundef %0, ptr noundef writeonly captures(none) %1, ptr noundef readonly captures(none) %2) local_unnamed_addr #0 {
  %4 = getelementptr inbounds nuw i8, ptr %2, i64 8
  %5 = load ptr, ptr %4, align 8, !tbaa !16
  %6 = tail call ptr @N_VGetArrayPointer(ptr noundef %0) #11
  %7 = icmp eq ptr %6, null
  br i1 %7, label %check_flag.exit, label %10

check_flag.exit:                                  ; preds = %3
  %8 = load ptr, ptr @stderr, align 8, !tbaa !4
  %9 = tail call i32 (ptr, ptr, ...) @fprintf(ptr noundef %8, ptr noundef nonnull @.str.39, ptr noundef nonnull @.str.37) #12
  br label %78

10:                                               ; preds = %3
  %11 = load i64, ptr %2, align 8, !tbaa !9
  %12 = add nsw i64 %11, -1
  %13 = tail call noalias ptr @calloc(i64 noundef %12, i64 noundef 4) #14
  %14 = icmp sgt i64 %11, 2
  br i1 %14, label %.lr.ph, label %.preheader75

.lr.ph:                                           ; preds = %10
  %15 = getelementptr inbounds nuw i8, ptr %2, i64 24
  %16 = load double, ptr %15, align 8, !tbaa !15
  %.pre = load double, ptr %6, align 8, !tbaa !17
  %.phi.trans.insert = getelementptr inbounds nuw i8, ptr %6, i64 8
  %.pre87 = load double, ptr %.phi.trans.insert, align 8, !tbaa !17
  %invariant.gep88 = getelementptr i8, ptr %13, i64 -4
  br label %18

.preheader75:                                     ; preds = %30, %10
  %17 = icmp sgt i64 %11, 1
  br i1 %17, label %.lr.ph79, label %._crit_edge

18:                                               ; preds = %.lr.ph, %30
  %19 = phi double [ %.pre87, %.lr.ph ], [ %24, %30 ]
  %20 = phi double [ %.pre, %.lr.ph ], [ %19, %30 ]
  %.06876 = phi i64 [ 1, %.lr.ph ], [ %22, %30 ]
  %21 = tail call double @llvm.fmuladd.f64(double %19, double -2.000000e+00, double %20)
  %22 = add nuw nsw i64 %.06876, 1
  %23 = getelementptr inbounds nuw double, ptr %6, i64 %22
  %24 = load double, ptr %23, align 8, !tbaa !17
  %25 = fadd double %21, %24
  %26 = tail call double @llvm.fabs.f64(double %25)
  %27 = fcmp ogt double %26, %16
  br i1 %27, label %28, label %30

28:                                               ; preds = %18
  %gep89 = getelementptr i32, ptr %invariant.gep88, i64 %.06876
  store i32 1, ptr %gep89, align 4, !tbaa !21
  %29 = getelementptr inbounds nuw i32, ptr %13, i64 %.06876
  store i32 1, ptr %29, align 4, !tbaa !21
  br label %30

30:                                               ; preds = %18, %28
  %exitcond.not = icmp eq i64 %22, %12
  br i1 %exitcond.not, label %.preheader75, label %18

.lr.ph79:                                         ; preds = %.preheader75, %.lr.ph79
  %.06778 = phi i64 [ %spec.select, %.lr.ph79 ], [ 0, %.preheader75 ]
  %.16977 = phi i64 [ %35, %.lr.ph79 ], [ 0, %.preheader75 ]
  %31 = getelementptr inbounds nuw i32, ptr %13, i64 %.16977
  %32 = load i32, ptr %31, align 4, !tbaa !21
  %33 = icmp eq i32 %32, 1
  %34 = zext i1 %33 to i64
  %spec.select = add nuw nsw i64 %.06778, %34
  %35 = add nuw nsw i64 %.16977, 1
  %exitcond84.not = icmp eq i64 %35, %12
  br i1 %exitcond84.not, label %._crit_edge, label %.lr.ph79

._crit_edge:                                      ; preds = %.lr.ph79, %.preheader75
  %.067.lcssa = phi i64 [ 0, %.preheader75 ], [ %spec.select, %.lr.ph79 ]
  %36 = add nsw i64 %.067.lcssa, %11
  store i64 %36, ptr %1, align 8, !tbaa !23
  %37 = shl i64 %36, 3
  %38 = tail call noalias ptr @malloc(i64 noundef %37) #13
  %39 = load double, ptr %5, align 8, !tbaa !17
  store double %39, ptr %38, align 8, !tbaa !17
  %40 = load i64, ptr %2, align 8, !tbaa !9
  %41 = getelementptr double, ptr %5, i64 %40
  %42 = getelementptr i8, ptr %41, i64 -8
  %43 = load double, ptr %42, align 8, !tbaa !17
  %44 = add nsw i64 %36, -1
  %45 = getelementptr inbounds double, ptr %38, i64 %44
  store double %43, ptr %45, align 8, !tbaa !17
  %invariant.gep = getelementptr inbounds nuw i8, ptr %5, i64 8
  %46 = icmp sgt i64 %40, 1
  br i1 %46, label %.lr.ph83.preheader, label %.preheader

.lr.ph83.preheader:                               ; preds = %._crit_edge
  %47 = add nsw i64 %40, -2
  br label %.lr.ph83

.preheader:                                       ; preds = %64, %._crit_edge
  %smax = tail call i64 @llvm.smax.i64(i64 %44, i64 0)
  br label %66

.lr.ph83:                                         ; preds = %.lr.ph83.preheader, %64
  %.281 = phi i64 [ %65, %64 ], [ 0, %.lr.ph83.preheader ]
  %.07080 = phi i64 [ %.171, %64 ], [ 1, %.lr.ph83.preheader ]
  %48 = getelementptr inbounds nuw i32, ptr %13, i64 %.281
  %49 = load i32, ptr %48, align 4, !tbaa !21
  switch i32 %49, label %64 [
    i32 0, label %50
    i32 1, label %54
  ]

50:                                               ; preds = %.lr.ph83
  %gep = getelementptr inbounds nuw double, ptr %invariant.gep, i64 %.281
  %51 = load double, ptr %gep, align 8, !tbaa !17
  %52 = add nsw i64 %.07080, 1
  %53 = getelementptr inbounds double, ptr %38, i64 %.07080
  store double %51, ptr %53, align 8, !tbaa !17
  br label %64

54:                                               ; preds = %.lr.ph83
  %55 = getelementptr inbounds nuw double, ptr %5, i64 %.281
  %56 = load double, ptr %55, align 8, !tbaa !17
  %57 = getelementptr inbounds nuw i8, ptr %55, i64 8
  %58 = load double, ptr %57, align 8, !tbaa !17
  %59 = fadd double %56, %58
  %60 = fmul double %59, 5.000000e-01
  %61 = getelementptr inbounds double, ptr %38, i64 %.07080
  store double %60, ptr %61, align 8, !tbaa !17
  %62 = add nsw i64 %.07080, 2
  %63 = getelementptr i8, ptr %61, i64 8
  store double %58, ptr %63, align 8, !tbaa !17
  br label %64

64:                                               ; preds = %.lr.ph83, %54, %50
  %.171 = phi i64 [ %52, %50 ], [ %62, %54 ], [ %.07080, %.lr.ph83 ]
  %65 = add nuw nsw i64 %.281, 1
  %exitcond85.not = icmp eq i64 %.281, %47
  br i1 %exitcond85.not, label %.preheader, label %.lr.ph83

66:                                               ; preds = %.preheader, %67
  %.3 = phi i64 [ %68, %67 ], [ 0, %.preheader ]
  %exitcond86.not = icmp eq i64 %.3, %smax
  br i1 %exitcond86.not, label %77, label %67

67:                                               ; preds = %66
  %68 = add nuw i64 %.3, 1
  %69 = getelementptr inbounds nuw double, ptr %38, i64 %68
  %70 = load double, ptr %69, align 8, !tbaa !17
  %71 = getelementptr inbounds nuw double, ptr %38, i64 %.3
  %72 = load double, ptr %71, align 8, !tbaa !17
  %73 = fcmp ugt double %70, %72
  br i1 %73, label %66, label %74

74:                                               ; preds = %67
  %75 = load ptr, ptr @stderr, align 8, !tbaa !4
  %76 = tail call i64 @fwrite(ptr nonnull @.str.38, i64 39, i64 1, ptr %75) #15
  tail call void @free(ptr noundef nonnull %38) #11
  br label %78

77:                                               ; preds = %66
  tail call void @free(ptr noundef %13) #11
  br label %78

78:                                               ; preds = %check_flag.exit, %77, %74
  %.0 = phi ptr [ null, %74 ], [ %38, %77 ], [ null, %check_flag.exit ]
  ret ptr %.0
}